; Function Attrs: mustprogress uwtable
define internal void @_ZL19pipeline_forward_4dR8PJ_COORDP8PJconsts(ptr noundef nonnull align 8 dereferenceable(32) %0, ptr noundef readonly captures(none) %1) #0 {
  %3 = getelementptr inbounds nuw i8, ptr %1, i64 88
  %4 = load ptr, ptr %3, align 8, !tbaa !77
  %5 = getelementptr inbounds nuw i8, ptr %4, i64 16
  %.val11 = load ptr, ptr %5, align 8, !tbaa !120
  %6 = getelementptr i8, ptr %4, i64 24
  %.val = load ptr, ptr %6, align 8, !tbaa !120
  %.not1617 = icmp eq ptr %.val11, %.val
  br i1 %.not1617, label %._crit_edge, label %.lr.ph

.lr.ph:                                           ; preds = %2, %.lr.ph.backedge
  %.sroa.015.018 = phi ptr [ %.sroa.015.018.be, %.lr.ph.backedge ], [ %.val11, %2 ]
  %7 = getelementptr inbounds nuw i8, ptr %.sroa.015.018, i64 8
  %8 = load i8, ptr %7, align 8, !tbaa !111, !range !115, !noundef !116
  %9 = trunc nuw i8 %8 to i1
  br i1 %9, label %.critedge, label %10

10:                                               ; preds = %.lr.ph
  %11 = load ptr, ptr %.sroa.015.018, align 8, !tbaa !109
  %12 = getelementptr inbounds nuw i8, ptr %11, i64 96
  %13 = load i32, ptr %12, align 8, !tbaa !105
  %.not = icmp eq i32 %13, 0
  br i1 %.not, label %14, label %16

14:                                               ; preds = %10
  %15 = tail call noundef zeroext i1 @_Z8pj_fwd4dR8PJ_COORDP8PJconsts(ptr noundef nonnull align 8 dereferenceable(32) %0, ptr noundef nonnull %11)
  br label %18

16:                                               ; preds = %10
  %17 = tail call noundef zeroext i1 @_Z8pj_inv4dR8PJ_COORDP8PJconsts(ptr noundef nonnull align 8 dereferenceable(32) %0, ptr noundef nonnull %11)
  br label %18

18:                                               ; preds = %16, %14
  %19 = load double, ptr %0, align 8, !tbaa !79
  %20 = fcmp oeq double %19, 0x7FF0000000000000
  %21 = getelementptr inbounds nuw i8, ptr %.sroa.015.018, i64 16
  %.not16 = icmp eq ptr %21, %.val
  %or.cond = select i1 %20, i1 true, i1 %.not16
  br i1 %or.cond, label %._crit_edge, label %.lr.ph.backedge

.critedge:                                        ; preds = %.lr.ph
  %.old = getelementptr inbounds nuw i8, ptr %.sroa.015.018, i64 16
  %.not16.old = icmp eq ptr %.old, %.val
  br i1 %.not16.old, label %._crit_edge, label %.lr.ph.backedge

.lr.ph.backedge:                                  ; preds = %.critedge, %18
  %.sroa.015.018.be = phi ptr [ %.old, %.critedge ], [ %21, %18 ]
  br label %.lr.ph

._crit_edge:                                      ; preds = %.critedge, %18, %2
  ret void
}